target datalayout = "e-m:e-p270:32:32-p271:32:32-p272:64:64-i64:64-i128:128-f80:128-n8:16:32:64-S128"
target triple = "x86_64-pc-linux-gnu"

%struct.X11InputMethodIDs = type { ptr }
%union.jvalue = type { i64 }
%struct._X11InputMethodData = type { ptr, ptr, ptr, ptr, ptr, ptr, ptr, i32 }
%struct.JNINativeInterface_ = type { ptr, ptr, ptr, ptr, ptr, ptr, ptr, ptr, ptr, ptr, ptr, ptr, ptr, ptr, ptr, ptr, ptr, ptr, ptr, ptr, ptr, ptr, ptr, ptr, ptr, ptr, ptr, ptr, ptr, ptr, ptr, ptr, ptr, ptr, ptr, ptr, ptr, ptr, ptr, ptr, ptr, ptr, ptr, ptr, ptr, ptr, ptr, ptr, ptr, ptr, ptr, ptr, ptr, ptr, ptr, ptr, ptr, ptr, ptr, ptr, ptr, ptr, ptr, ptr, ptr, ptr, ptr, ptr, ptr, ptr, ptr, ptr, ptr, ptr, ptr, ptr, ptr, ptr, ptr, ptr, ptr, ptr, ptr, ptr, ptr, ptr, ptr, ptr, ptr, ptr, ptr, ptr, ptr, ptr, ptr, ptr, ptr, ptr, ptr, ptr, ptr, ptr, ptr, ptr, ptr, ptr, ptr, ptr, ptr, ptr, ptr, ptr, ptr, ptr, ptr, ptr, ptr, ptr, ptr, ptr, ptr, ptr, ptr, ptr, ptr, ptr, ptr, ptr, ptr, ptr, ptr, ptr, ptr, ptr, ptr, ptr, ptr, ptr, ptr, ptr, ptr, ptr, ptr, ptr, ptr, ptr, ptr, ptr, ptr, ptr, ptr, ptr, ptr, ptr, ptr, ptr, ptr, ptr, ptr, ptr, ptr, ptr, ptr, ptr, ptr, ptr, ptr, ptr, ptr, ptr, ptr, ptr, ptr, ptr, ptr, ptr, ptr, ptr, ptr, ptr, ptr, ptr, ptr, ptr, ptr, ptr, ptr, ptr, ptr, ptr, ptr, ptr, ptr, ptr, ptr, ptr, ptr, ptr, ptr, ptr, ptr, ptr, ptr, ptr, ptr, ptr, ptr, ptr, ptr, ptr, ptr, ptr, ptr, ptr, ptr, ptr, ptr, ptr, ptr, ptr, ptr, ptr, ptr, ptr, ptr, ptr, ptr, ptr, ptr, ptr, ptr, ptr, ptr, ptr, ptr }

@tkClass = external global ptr, align 8
@awtLockMID = external global ptr, align 8
@awtUnlockMID = external global ptr, align 8
@x11InputMethodIDs = hidden global %struct.X11InputMethodIDs zeroinitializer, align 8
@.str.7 = private unnamed_addr constant [13 x i8] c"preeditState\00", align 1
@.str.8 = private unnamed_addr constant [18 x i8] c"preeditAttributes\00", align 1
@.str.9 = private unnamed_addr constant [40 x i8] c"java/lang/UnsupportedOperationException\00", align 1
@.str.10 = private unnamed_addr constant [1 x i8] zeroinitializer, align 1
@X11im = internal global ptr null, align 8
@.str.11 = private unnamed_addr constant [10 x i8] c"flushText\00", align 1
@.str.12 = private unnamed_addr constant [4 x i8] c"()V\00", align 1

; Function Attrs: nounwind uwtable
define internal void @setX11InputMethodData(ptr noundef %0, ptr noundef %1, ptr noundef %2) #0 {
  %4 = alloca ptr, align 8
  %5 = alloca ptr, align 8
  %6 = alloca ptr, align 8
  store ptr %0, ptr %4, align 8
  store ptr %1, ptr %5, align 8
  store ptr %2, ptr %6, align 8
  %7 = load ptr, ptr %4, align 8
  %8 = load ptr, ptr %7, align 8
  %9 = getelementptr inbounds %struct.JNINativeInterface_, ptr %8, i32 0, i32 110
  %10 = load ptr, ptr %9, align 8
  %11 = load ptr, ptr %4, align 8
  %12 = load ptr, ptr %5, align 8
  %13 = load ptr, ptr @x11InputMethodIDs, align 8
  %14 = load ptr, ptr %6, align 8
  %15 = ptrtoint ptr %14 to i64
  call void %10(ptr noundef %11, ptr noundef %12, ptr noundef %13, i64 noundef %15)
  ret void
}

; Function Attrs: nounwind uwtable
define internal ptr @getX11InputMethodData(ptr noundef %0, ptr noundef %1) #0 {
  %3 = alloca ptr, align 8
  %4 = alloca ptr, align 8
  %5 = alloca ptr, align 8
  %6 = alloca ptr, align 8
  %7 = alloca %union.jvalue, align 8
  store ptr %0, ptr %4, align 8
  store ptr %1, ptr %5, align 8
  %8 = load ptr, ptr %4, align 8
  %9 = load ptr, ptr %8, align 8
  %10 = getelementptr inbounds %struct.JNINativeInterface_, ptr %9, i32 0, i32 101
  %11 = load ptr, ptr %10, align 8
  %12 = load ptr, ptr %4, align 8
  %13 = load ptr, ptr %5, align 8
  %14 = load ptr, ptr @x11InputMethodIDs, align 8
  %15 = call i64 %11(ptr noundef %12, ptr noundef %13, ptr noundef %14)
  %16 = inttoptr i64 %15 to ptr
  store ptr %16, ptr %6, align 8
  %17 = load ptr, ptr @X11im, align 8
  %18 = icmp eq ptr %17, null
  br i1 %18, label %19, label %44

19:                                               ; preds = %2
  %20 = load ptr, ptr %6, align 8
  %21 = icmp ne ptr %20, null
  br i1 %21, label %22, label %44

22:                                               ; preds = %19
  %23 = load ptr, ptr %4, align 8
  %24 = load ptr, ptr %6, align 8
  %25 = getelementptr inbounds %struct._X11InputMethodData, ptr %24, i32 0, i32 4
  %26 = load ptr, ptr %25, align 8
  %27 = call i64 (ptr, ptr, ptr, ptr, ptr, ...) @JNU_CallMethodByName(ptr noundef %23, ptr noundef null, ptr noundef %26, ptr noundef @.str.11, ptr noundef @.str.12)
  %28 = getelementptr inbounds %union.jvalue, ptr %7, i32 0, i32 0
  store i64 %27, ptr %28, align 8
  br label %29

29:                                               ; preds = %22
  %30 = load ptr, ptr %4, align 8
  %31 = load ptr, ptr %30, align 8
  %32 = getelementptr inbounds %struct.JNINativeInterface_, ptr %31, i32 0, i32 228
  %33 = load ptr, ptr %32, align 8
  %34 = load ptr, ptr %4, align 8
  %35 = call zeroext i8 %33(ptr noundef %34)
  %36 = icmp ne i8 %35, 0
  br i1 %36, label %37, label %38

37:                                               ; preds = %29
  store ptr null, ptr %3, align 8
  br label %46

38:                                               ; preds = %29
  br label %39

39:                                               ; preds = %38
  %40 = load ptr, ptr %4, align 8
  %41 = load ptr, ptr %5, align 8
  call void @setX11InputMethodData(ptr noundef %40, ptr noundef %41, ptr noundef null)
  %42 = load ptr, ptr %4, align 8
  %43 = load ptr, ptr %6, align 8
  call void @freeX11InputMethodData(ptr noundef %42, ptr noundef %43)
  store ptr null, ptr %6, align 8
  br label %44

44:                                               ; preds = %39, %19, %2
  %45 = load ptr, ptr %6, align 8
  store ptr %45, ptr %3, align 8
  br label %46

46:                                               ; preds = %44, %37
  %47 = load ptr, ptr %3, align 8
  ret ptr %47
}

; Function Attrs: nounwind uwtable
define zeroext i8 @Java_sun_awt_X11InputMethodBase_isCompositionEnabledNative(ptr noundef %0, ptr noundef %1) #0 {
  %3 = alloca i8, align 1
  %4 = alloca ptr, align 8
  %5 = alloca ptr, align 8
  %6 = alloca ptr, align 8
  %7 = alloca ptr, align 8
  %8 = alloca i64, align 8
  %9 = alloca ptr, align 8
  %10 = alloca ptr, align 8
  %11 = alloca ptr, align 8
  store ptr %0, ptr %4, align 8
  store ptr %1, ptr %5, align 8
  store ptr null, ptr %6, align 8
  store ptr null, ptr %7, align 8
  store i64 0, ptr %8, align 8
  br label %12

12:                                               ; preds = %2
  %13 = load ptr, ptr %4, align 8
  %14 = load ptr, ptr %13, align 8
  %15 = getelementptr inbounds %struct.JNINativeInterface_, ptr %14, i32 0, i32 228
  %16 = load ptr, ptr %15, align 8
  %17 = load ptr, ptr %4, align 8
  %18 = call zeroext i8 %16(ptr noundef %17)
  %19 = icmp ne i8 %18, 0
  br i1 %19, label %20, label %26

20:                                               ; preds = %12
  %21 = load ptr, ptr %4, align 8
  %22 = load ptr, ptr %21, align 8
  %23 = getelementptr inbounds %struct.JNINativeInterface_, ptr %22, i32 0, i32 17
  %24 = load ptr, ptr %23, align 8
  %25 = load ptr, ptr %4, align 8
  call void %24(ptr noundef %25)
  br label %26

26:                                               ; preds = %20, %12
  %27 = load ptr, ptr %4, align 8
  %28 = load ptr, ptr %27, align 8
  %29 = getelementptr inbounds %struct.JNINativeInterface_, ptr %28, i32 0, i32 141
  %30 = load ptr, ptr %29, align 8
  %31 = load ptr, ptr %4, align 8
  %32 = load ptr, ptr @tkClass, align 8
  %33 = load ptr, ptr @awtLockMID, align 8
  call void (ptr, ptr, ptr, ...) %30(ptr noundef %31, ptr noundef %32, ptr noundef %33)
  %34 = load ptr, ptr %4, align 8
  %35 = load ptr, ptr %34, align 8
  %36 = getelementptr inbounds %struct.JNINativeInterface_, ptr %35, i32 0, i32 228
  %37 = load ptr, ptr %36, align 8
  %38 = load ptr, ptr %4, align 8
  %39 = call zeroext i8 %37(ptr noundef %38)
  %40 = icmp ne i8 %39, 0
  br i1 %40, label %41, label %47

41:                                               ; preds = %26
  %42 = load ptr, ptr %4, align 8
  %43 = load ptr, ptr %42, align 8
  %44 = getelementptr inbounds %struct.JNINativeInterface_, ptr %43, i32 0, i32 17
  %45 = load ptr, ptr %44, align 8
  %46 = load ptr, ptr %4, align 8
  call void %45(ptr noundef %46)
  br label %47

47:                                               ; preds = %41, %26
  br label %48

48:                                               ; preds = %47
  %49 = load ptr, ptr %4, align 8
  %50 = load ptr, ptr %5, align 8
  %51 = call ptr @getX11InputMethodData(ptr noundef %49, ptr noundef %50)
  store ptr %51, ptr %6, align 8
  %52 = load ptr, ptr %6, align 8
  %53 = icmp eq ptr %52, null
  br i1 %53, label %59, label %54

54:                                               ; preds = %48
  %55 = load ptr, ptr %6, align 8
  %56 = getelementptr inbounds %struct._X11InputMethodData, ptr %55, i32 0, i32 0
  %57 = load ptr, ptr %56, align 8
  %58 = icmp eq ptr %57, null
  br i1 %58, label %59, label %110

59:                                               ; preds = %54, %48
  br label %60

60:                                               ; preds = %59
  call void (...) @awt_output_flush()
  br label %61

61:                                               ; preds = %60
  %62 = load ptr, ptr %4, align 8
  %63 = load ptr, ptr %62, align 8
  %64 = getelementptr inbounds %struct.JNINativeInterface_, ptr %63, i32 0, i32 15
  %65 = load ptr, ptr %64, align 8
  %66 = load ptr, ptr %4, align 8
  %67 = call ptr %65(ptr noundef %66)
  store ptr %67, ptr %10, align 8
  %68 = icmp ne ptr %67, null
  br i1 %68, label %69, label %75

69:                                               ; preds = %61
  %70 = load ptr, ptr %4, align 8
  %71 = load ptr, ptr %70, align 8
  %72 = getelementptr inbounds %struct.JNINativeInterface_, ptr %71, i32 0, i32 17
  %73 = load ptr, ptr %72, align 8
  %74 = load ptr, ptr %4, align 8
  call void %73(ptr noundef %74)
  br label %75

75:                                               ; preds = %69, %61
  %76 = load ptr, ptr %4, align 8
  %77 = load ptr, ptr %76, align 8
  %78 = getelementptr inbounds %struct.JNINativeInterface_, ptr %77, i32 0, i32 141
  %79 = load ptr, ptr %78, align 8
  %80 = load ptr, ptr %4, align 8
  %81 = load ptr, ptr @tkClass, align 8
  %82 = load ptr, ptr @awtUnlockMID, align 8
  call void (ptr, ptr, ptr, ...) %79(ptr noundef %80, ptr noundef %81, ptr noundef %82)
  %83 = load ptr, ptr %4, align 8
  %84 = load ptr, ptr %83, align 8
  %85 = getelementptr inbounds %struct.JNINativeInterface_, ptr %84, i32 0, i32 228
  %86 = load ptr, ptr %85, align 8
  %87 = load ptr, ptr %4, align 8
  %88 = call zeroext i8 %86(ptr noundef %87)
  %89 = icmp ne i8 %88, 0
  br i1 %89, label %90, label %96

90:                                               ; preds = %75
  %91 = load ptr, ptr %4, align 8
  %92 = load ptr, ptr %91, align 8
  %93 = getelementptr inbounds %struct.JNINativeInterface_, ptr %92, i32 0, i32 17
  %94 = load ptr, ptr %93, align 8
  %95 = load ptr, ptr %4, align 8
  call void %94(ptr noundef %95)
  br label %96

96:                                               ; preds = %90, %75
  %97 = load ptr, ptr %10, align 8
  %98 = icmp ne ptr %97, null
  br i1 %98, label %99, label %107

99:                                               ; preds = %96
  %100 = load ptr, ptr %4, align 8
  %101 = load ptr, ptr %100, align 8
  %102 = getelementptr inbounds %struct.JNINativeInterface_, ptr %101, i32 0, i32 13
  %103 = load ptr, ptr %102, align 8
  %104 = load ptr, ptr %4, align 8
  %105 = load ptr, ptr %10, align 8
  %106 = call i32 %103(ptr noundef %104, ptr noundef %105)
  br label %107

107:                                              ; preds = %99, %96
  br label %108

108:                                              ; preds = %107
  br label %109

109:                                              ; preds = %108
  store i8 0, ptr %3, align 1
  br label %186

110:                                              ; preds = %54
  %111 = call ptr (i32, ...) @XVaCreateNestedList(i32 noundef 0, ptr noundef @.str.7, ptr noundef %8, ptr noundef null)
  store ptr %111, ptr %9, align 8
  %112 = load ptr, ptr %6, align 8
  %113 = getelementptr inbounds %struct._X11InputMethodData, ptr %112, i32 0, i32 0
  %114 = load ptr, ptr %113, align 8
  %115 = load ptr, ptr %9, align 8
  %116 = call ptr (ptr, ...) @XGetICValues(ptr noundef %114, ptr noundef @.str.8, ptr noundef %115, ptr noundef null)
  store ptr %116, ptr %7, align 8
  %117 = load ptr, ptr %9, align 8
  %118 = call i32 @XFree(ptr noundef %117)
  br label %119

119:                                              ; preds = %110
  call void (...) @awt_output_flush()
  br label %120

120:                                              ; preds = %119
  %121 = load ptr, ptr %4, align 8
  %122 = load ptr, ptr %121, align 8
  %123 = getelementptr inbounds %struct.JNINativeInterface_, ptr %122, i32 0, i32 15
  %124 = load ptr, ptr %123, align 8
  %125 = load ptr, ptr %4, align 8
  %126 = call ptr %124(ptr noundef %125)
  store ptr %126, ptr %11, align 8
  %127 = icmp ne ptr %126, null
  br i1 %127, label %128, label %134

128:                                              ; preds = %120
  %129 = load ptr, ptr %4, align 8
  %130 = load ptr, ptr %129, align 8
  %131 = getelementptr inbounds %struct.JNINativeInterface_, ptr %130, i32 0, i32 17
  %132 = load ptr, ptr %131, align 8
  %133 = load ptr, ptr %4, align 8
  call void %132(ptr noundef %133)
  br label %134

134:                                              ; preds = %128, %120
  %135 = load ptr, ptr %4, align 8
  %136 = load ptr, ptr %135, align 8
  %137 = getelementptr inbounds %struct.JNINativeInterface_, ptr %136, i32 0, i32 141
  %138 = load ptr, ptr %137, align 8
  %139 = load ptr, ptr %4, align 8
  %140 = load ptr, ptr @tkClass, align 8
  %141 = load ptr, ptr @awtUnlockMID, align 8
  call void (ptr, ptr, ptr, ...) %138(ptr noundef %139, ptr noundef %140, ptr noundef %141)
  %142 = load ptr, ptr %4, align 8
  %143 = load ptr, ptr %142, align 8
  %144 = getelementptr inbounds %struct.JNINativeInterface_, ptr %143, i32 0, i32 228
  %145 = load ptr, ptr %144, align 8
  %146 = load ptr, ptr %4, align 8
  %147 = call zeroext i8 %145(ptr noundef %146)
  %148 = icmp ne i8 %147, 0
  br i1 %148, label %149, label %155

149:                                              ; preds = %134
  %150 = load ptr, ptr %4, align 8
  %151 = load ptr, ptr %150, align 8
  %152 = getelementptr inbounds %struct.JNINativeInterface_, ptr %151, i32 0, i32 17
  %153 = load ptr, ptr %152, align 8
  %154 = load ptr, ptr %4, align 8
  call void %153(ptr noundef %154)
  br label %155

155:                                              ; preds = %149, %134
  %156 = load ptr, ptr %11, align 8
  %157 = icmp ne ptr %156, null
  br i1 %157, label %158, label %166

158:                                              ; preds = %155
  %159 = load ptr, ptr %4, align 8
  %160 = load ptr, ptr %159, align 8
  %161 = getelementptr inbounds %struct.JNINativeInterface_, ptr %160, i32 0, i32 13
  %162 = load ptr, ptr %161, align 8
  %163 = load ptr, ptr %4, align 8
  %164 = load ptr, ptr %11, align 8
  %165 = call i32 %162(ptr noundef %163, ptr noundef %164)
  br label %166

166:                                              ; preds = %158, %155
  br label %167

167:                                              ; preds = %166
  br label %168

168:                                              ; preds = %167
  %169 = load ptr, ptr %7, align 8
  %170 = icmp ne ptr %169, null
  br i1 %170, label %171, label %181

171:                                              ; preds = %168
  %172 = load ptr, ptr %7, align 8
  %173 = call i32 @strcmp(ptr noundef %172, ptr noundef @.str.8) #8
  %174 = icmp eq i32 %173, 0
  br i1 %174, label %179, label %175

175:                                              ; preds = %171
  %176 = load ptr, ptr %7, align 8
  %177 = call i32 @strcmp(ptr noundef %176, ptr noundef @.str.7) #8
  %178 = icmp eq i32 %177, 0
  br i1 %178, label %179, label %181

179:                                              ; preds = %175, %171
  %180 = load ptr, ptr %4, align 8
  call void @JNU_ThrowByName(ptr noundef %180, ptr noundef @.str.9, ptr noundef @.str.10)
  store i8 0, ptr %3, align 1
  br label %186

181:                                              ; preds = %175, %168
  %182 = load i64, ptr %8, align 8
  %183 = icmp eq i64 %182, 1
  %184 = zext i1 %183 to i32
  %185 = trunc i32 %184 to i8
  store i8 %185, ptr %3, align 1
  br label %186

186:                                              ; preds = %181, %179, %109
  %187 = load i8, ptr %3, align 1
  ret i8 %187
}