; Function Attrs: nounwind uwtable
define zeroext range(i8 0, 2) i8 @Java_sun_awt_X11InputMethodBase_isCompositionEnabledNative(ptr noundef %0, ptr noundef %1) local_unnamed_addr #2 {
  %3 = alloca i64, align 8
  store i64 0, ptr %3, align 8
  %4 = load ptr, ptr %0, align 8
  %5 = getelementptr inbounds i8, ptr %4, i64 1824
  %6 = load ptr, ptr %5, align 8
  %7 = tail call zeroext i8 %6(ptr noundef nonnull %0) #14
  %.not = icmp eq i8 %7, 0
  br i1 %.not, label %12, label %8

8:                                                ; preds = %2
  %9 = load ptr, ptr %0, align 8
  %10 = getelementptr inbounds i8, ptr %9, i64 136
  %11 = load ptr, ptr %10, align 8
  tail call void %11(ptr noundef nonnull %0) #14
  br label %12

12:                                               ; preds = %8, %2
  %13 = load ptr, ptr %0, align 8
  %14 = getelementptr inbounds i8, ptr %13, i64 1128
  %15 = load ptr, ptr %14, align 8
  %16 = load ptr, ptr @tkClass, align 8
  %17 = load ptr, ptr @awtLockMID, align 8
  tail call void (ptr, ptr, ptr, ...) %15(ptr noundef nonnull %0, ptr noundef %16, ptr noundef %17) #14
  %18 = load ptr, ptr %0, align 8
  %19 = getelementptr inbounds i8, ptr %18, i64 1824
  %20 = load ptr, ptr %19, align 8
  %21 = tail call zeroext i8 %20(ptr noundef nonnull %0) #14
  %.not53 = icmp eq i8 %21, 0
  br i1 %.not53, label %26, label %22

22:                                               ; preds = %12
  %23 = load ptr, ptr %0, align 8
  %24 = getelementptr inbounds i8, ptr %23, i64 136
  %25 = load ptr, ptr %24, align 8
  tail call void %25(ptr noundef nonnull %0) #14
  br label %26

26:                                               ; preds = %12, %22
  %27 = load ptr, ptr %0, align 8
  %28 = getelementptr inbounds i8, ptr %27, i64 808
  %29 = load ptr, ptr %28, align 8
  %30 = load ptr, ptr @x11InputMethodIDs, align 8
  %31 = tail call i64 %29(ptr noundef nonnull %0, ptr noundef %1, ptr noundef %30) #14
  %32 = inttoptr i64 %31 to ptr
  %33 = load ptr, ptr @X11im, align 8
  %34 = icmp eq ptr %33, null
  %35 = icmp ne i64 %31, 0
  %or.cond.i = select i1 %34, i1 %35, i1 false
  br i1 %or.cond.i, label %36, label %getX11InputMethodData.exit

36:                                               ; preds = %26
  %37 = getelementptr inbounds i8, ptr %32, i64 32
  %38 = load ptr, ptr %37, align 8
  %39 = tail call i64 (ptr, ptr, ptr, ptr, ptr, ...) @JNU_CallMethodByName(ptr noundef nonnull %0, ptr noundef null, ptr noundef %38, ptr noundef nonnull @.str.11, ptr noundef nonnull @.str.12) #14
  %40 = load ptr, ptr %0, align 8
  %41 = getelementptr inbounds i8, ptr %40, i64 1824
  %42 = load ptr, ptr %41, align 8
  %43 = tail call zeroext i8 %42(ptr noundef nonnull %0) #14
  %.not.i = icmp eq i8 %43, 0
  br i1 %.not.i, label %44, label %getX11InputMethodData.exit.thread

44:                                               ; preds = %36
  %45 = load ptr, ptr %0, align 8
  %46 = getelementptr inbounds i8, ptr %45, i64 880
  %47 = load ptr, ptr %46, align 8
  %48 = load ptr, ptr @x11InputMethodIDs, align 8
  tail call void %47(ptr noundef nonnull %0, ptr noundef %1, ptr noundef %48, i64 noundef 0) #14
  tail call fastcc void @freeX11InputMethodData(ptr noundef nonnull %0, ptr noundef nonnull %32)
  br label %getX11InputMethodData.exit.thread

getX11InputMethodData.exit:                       ; preds = %26
  %49 = icmp eq i64 %31, 0
  br i1 %49, label %getX11InputMethodData.exit.thread, label %50

50:                                               ; preds = %getX11InputMethodData.exit
  %51 = load ptr, ptr %32, align 8
  %52 = icmp eq ptr %51, null
  br i1 %52, label %getX11InputMethodData.exit.thread, label %81

getX11InputMethodData.exit.thread:                ; preds = %44, %36, %getX11InputMethodData.exit, %50
  tail call void (...) @awt_output_flush() #14
  %53 = load ptr, ptr %0, align 8
  %54 = getelementptr inbounds i8, ptr %53, i64 120
  %55 = load ptr, ptr %54, align 8
  %56 = tail call ptr %55(ptr noundef nonnull %0) #14
  %.not57 = icmp eq ptr %56, null
  br i1 %.not57, label %61, label %57

57:                                               ; preds = %getX11InputMethodData.exit.thread
  %58 = load ptr, ptr %0, align 8
  %59 = getelementptr inbounds i8, ptr %58, i64 136
  %60 = load ptr, ptr %59, align 8
  tail call void %60(ptr noundef nonnull %0) #14
  br label %61

61:                                               ; preds = %57, %getX11InputMethodData.exit.thread
  %62 = load ptr, ptr %0, align 8
  %63 = getelementptr inbounds i8, ptr %62, i64 1128
  %64 = load ptr, ptr %63, align 8
  %65 = load ptr, ptr @tkClass, align 8
  %66 = load ptr, ptr @awtUnlockMID, align 8
  tail call void (ptr, ptr, ptr, ...) %64(ptr noundef nonnull %0, ptr noundef %65, ptr noundef %66) #14
  %67 = load ptr, ptr %0, align 8
  %68 = getelementptr inbounds i8, ptr %67, i64 1824
  %69 = load ptr, ptr %68, align 8
  %70 = tail call zeroext i8 %69(ptr noundef nonnull %0) #14
  %.not58 = icmp eq i8 %70, 0
  br i1 %.not58, label %75, label %71

71:                                               ; preds = %61
  %72 = load ptr, ptr %0, align 8
  %73 = getelementptr inbounds i8, ptr %72, i64 136
  %74 = load ptr, ptr %73, align 8
  tail call void %74(ptr noundef nonnull %0) #14
  br label %75

75:                                               ; preds = %71, %61
  br i1 %.not57, label %126, label %76

76:                                               ; preds = %75
  %77 = load ptr, ptr %0, align 8
  %78 = getelementptr inbounds i8, ptr %77, i64 104
  %79 = load ptr, ptr %78, align 8
  %80 = tail call i32 %79(ptr noundef nonnull %0, ptr noundef nonnull %56) #14
  br label %126

81:                                               ; preds = %50
  %82 = call ptr (i32, ...) @XVaCreateNestedList(i32 noundef 0, ptr noundef nonnull @.str.7, ptr noundef nonnull %3, ptr noundef null) #14
  %83 = load ptr, ptr %32, align 8
  %84 = call ptr (ptr, ...) @XGetICValues(ptr noundef %83, ptr noundef nonnull @.str.8, ptr noundef %82, ptr noundef null) #14
  %85 = call i32 @XFree(ptr noundef %82) #14
  call void (...) @awt_output_flush() #14
  %86 = load ptr, ptr %0, align 8
  %87 = getelementptr inbounds i8, ptr %86, i64 120
  %88 = load ptr, ptr %87, align 8
  %89 = call ptr %88(ptr noundef nonnull %0) #14
  %.not54 = icmp eq ptr %89, null
  br i1 %.not54, label %94, label %90

90:                                               ; preds = %81
  %91 = load ptr, ptr %0, align 8
  %92 = getelementptr inbounds i8, ptr %91, i64 136
  %93 = load ptr, ptr %92, align 8
  call void %93(ptr noundef nonnull %0) #14
  br label %94

94:                                               ; preds = %90, %81
  %95 = load ptr, ptr %0, align 8
  %96 = getelementptr inbounds i8, ptr %95, i64 1128
  %97 = load ptr, ptr %96, align 8
  %98 = load ptr, ptr @tkClass, align 8
  %99 = load ptr, ptr @awtUnlockMID, align 8
  call void (ptr, ptr, ptr, ...) %97(ptr noundef nonnull %0, ptr noundef %98, ptr noundef %99) #14
  %100 = load ptr, ptr %0, align 8
  %101 = getelementptr inbounds i8, ptr %100, i64 1824
  %102 = load ptr, ptr %101, align 8
  %103 = call zeroext i8 %102(ptr noundef nonnull %0) #14
  %.not55 = icmp eq i8 %103, 0
  br i1 %.not55, label %108, label %104

104:                                              ; preds = %94
  %105 = load ptr, ptr %0, align 8
  %106 = getelementptr inbounds i8, ptr %105, i64 136
  %107 = load ptr, ptr %106, align 8
  call void %107(ptr noundef nonnull %0) #14
  br label %108

108:                                              ; preds = %104, %94
  br i1 %.not54, label %114, label %109

109:                                              ; preds = %108
  %110 = load ptr, ptr %0, align 8
  %111 = getelementptr inbounds i8, ptr %110, i64 104
  %112 = load ptr, ptr %111, align 8
  %113 = call i32 %112(ptr noundef nonnull %0, ptr noundef nonnull %89) #14
  br label %114

114:                                              ; preds = %109, %108
  %.not56 = icmp eq ptr %84, null
  br i1 %.not56, label %122, label %115

115:                                              ; preds = %114
  %116 = call i32 @strcmp(ptr noundef nonnull dereferenceable(1) %84, ptr noundef nonnull dereferenceable(18) @.str.8) #16
  %117 = icmp eq i32 %116, 0
  br i1 %117, label %121, label %118

118:                                              ; preds = %115
  %119 = call i32 @strcmp(ptr noundef nonnull dereferenceable(1) %84, ptr noundef nonnull dereferenceable(13) @.str.7) #16
  %120 = icmp eq i32 %119, 0
  br i1 %120, label %121, label %122

121:                                              ; preds = %118, %115
  call void @JNU_ThrowByName(ptr noundef nonnull %0, ptr noundef nonnull @.str.9, ptr noundef nonnull @.str.10) #14
  br label %126

122:                                              ; preds = %118, %114
  %123 = load i64, ptr %3, align 8
  %124 = icmp eq i64 %123, 1
  %125 = zext i1 %124 to i8
  br label %126

126:                                              ; preds = %75, %76, %122, %121
  %.0 = phi i8 [ 0, %121 ], [ %125, %122 ], [ 0, %76 ], [ 0, %75 ]
  ret i8 %.0
}